target datalayout = "e-m:e-p270:32:32-p271:32:32-p272:64:64-i64:64-i128:128-f80:128-n8:16:32:64-S128"
target triple = "x86_64-unknown-linux-gnu"

%class.params_ref = type { ptr }
%class.anon = type { i8 }
%class.symbol = type { ptr }

@.str.8 = private unnamed_addr constant [4 x i8] c"som\00", align 1
@.str.34 = private unnamed_addr constant [5 x i8] c"flat\00", align 1
@.str.35 = private unnamed_addr constant [3 x i8] c"gc\00", align 1
@.str.36 = private unnamed_addr constant [8 x i8] c"dyn_psm\00", align 1

; Function Attrs: mustprogress nounwind uwtable
define linkonce_odr hidden noundef ptr @_ZZ19mk_solve_eqs_tacticR11ast_managerRK10params_refENKUlRT_RT0_RT1_E_cvPFP25dependent_expr_simplifierS5_S7_S9_EIS_S2_20dependent_expr_stateEEv(ptr noundef nonnull align 1 dereferenceable(1) %this) #6 comdat align 2 {
entry:
  %this.addr = alloca ptr, align 8
  store ptr %this, ptr %this.addr, align 8
  ret ptr @_ZZ19mk_solve_eqs_tacticR11ast_managerRK10params_refENUlRT_RT0_RT1_E_8__invokeIS_S2_20dependent_expr_stateEEP25dependent_expr_simplifierS5_S7_S9_
}

; Function Attrs: mustprogress uwtable
define linkonce_odr hidden noundef ptr @_Z24mk_max_bv_sharing_tacticR11ast_managerRK10params_ref(ptr noundef nonnull align 8 dereferenceable(976) %m, ptr noundef nonnull align 8 dereferenceable(8) %p) #4 comdat {
entry:
  %m.addr = alloca ptr, align 8
  %p.addr = alloca ptr, align 8
  store ptr %m, ptr %m.addr, align 8
  store ptr %p, ptr %p.addr, align 8
  %call = call noalias noundef ptr @_ZN6memory8allocateEm(i64 noundef 352)
  %0 = load ptr, ptr %m.addr, align 8
  %1 = load ptr, ptr %p.addr, align 8
  call void @_ZN27dependent_expr_state_tacticC2ER11ast_managerRK10params_refPFP25dependent_expr_simplifierS1_S4_R20dependent_expr_stateE(ptr noundef nonnull align 8 dereferenceable(345) %call, ptr noundef nonnull align 8 dereferenceable(976) %0, ptr noundef nonnull align 8 dereferenceable(8) %1, ptr noundef @_Z17mk_max_bv_sharingR11ast_managerRK10params_refR20dependent_expr_state)
  ret ptr %call
}

; Function Attrs: mustprogress uwtable
define linkonce_odr hidden noundef ptr @_Z19mk_solve_eqs_tacticR11ast_managerRK10params_ref(ptr noundef nonnull align 8 dereferenceable(976) %m, ptr noundef nonnull align 8 dereferenceable(8) %p) #4 comdat {
entry:
  %m.addr = alloca ptr, align 8
  %p.addr = alloca ptr, align 8
  %ref.tmp = alloca %class.anon, align 1
  store ptr %m, ptr %m.addr, align 8
  store ptr %p, ptr %p.addr, align 8
  %call = call noalias noundef ptr @_ZN6memory8allocateEm(i64 noundef 352)
  %0 = load ptr, ptr %m.addr, align 8
  %1 = load ptr, ptr %p.addr, align 8
  %call1 = call noundef ptr @_ZZ19mk_solve_eqs_tacticR11ast_managerRK10params_refENKUlRT_RT0_RT1_E_cvPFP25dependent_expr_simplifierS5_S7_S9_EIS_S2_20dependent_expr_stateEEv(ptr noundef nonnull align 1 dereferenceable(1) %ref.tmp) #3
  call void @_ZN27dependent_expr_state_tacticC2ER11ast_managerRK10params_refPFP25dependent_expr_simplifierS1_S4_R20dependent_expr_stateE(ptr noundef nonnull align 8 dereferenceable(345) %call, ptr noundef nonnull align 8 dereferenceable(976) %0, ptr noundef nonnull align 8 dereferenceable(8) %1, ptr noundef %call1)
  ret ptr %call
}

; Function Attrs: mustprogress nounwind uwtable
define linkonce_odr hidden void @_ZN10params_refC2Ev(ptr noundef nonnull align 8 dereferenceable(8) %this) unnamed_addr #6 comdat align 2 {
entry:
  %this.addr = alloca ptr, align 8
  store ptr %this, ptr %this.addr, align 8
  %this1 = load ptr, ptr %this.addr, align 8
  %m_params = getelementptr inbounds %class.params_ref, ptr %this1, i32 0, i32 0
  store ptr null, ptr %m_params, align 8
  ret void
}

; Function Attrs: mustprogress uwtable
define internal noundef ptr @_ZL16mk_bv2sat_tacticR11ast_manager(ptr noundef nonnull align 8 dereferenceable(976) %m) #4 personality ptr @__gxx_personality_v0 {
entry:
  %m.addr = alloca ptr, align 8
  %solver_p = alloca %class.params_ref, align 8
  %exn.slot = alloca ptr, align 8
  %ehselector.slot = alloca i32, align 4
  %ref.tmp = alloca %class.symbol, align 8
  %ref.tmp4 = alloca %class.params_ref, align 8
  %ref.tmp8 = alloca %class.params_ref, align 8
  %ref.tmp13 = alloca %class.params_ref, align 8
  %ref.tmp18 = alloca %class.params_ref, align 8
  %ref.tmp23 = alloca %class.params_ref, align 8
  %ref.tmp28 = alloca %class.params_ref, align 8
  store ptr %m, ptr %m.addr, align 8
  call void @_ZN10params_refC2Ev(ptr noundef nonnull align 8 dereferenceable(8) %solver_p)
  invoke void @_ZN10params_ref8set_boolEPKcb(ptr noundef nonnull align 8 dereferenceable(8) %solver_p, ptr noundef @.str.34, i1 noundef zeroext false)
          to label %invoke.cont unwind label %lpad

invoke.cont:                                      ; preds = %entry
  invoke void @_ZN10params_ref8set_boolEPKcb(ptr noundef nonnull align 8 dereferenceable(8) %solver_p, ptr noundef @.str.8, i1 noundef zeroext false)
          to label %invoke.cont1 unwind label %lpad

invoke.cont1:                                     ; preds = %invoke.cont
  invoke void @_ZN6symbolC1EPKc(ptr noundef nonnull align 8 dereferenceable(8) %ref.tmp, ptr noundef @.str.36)
          to label %invoke.cont2 unwind label %lpad

invoke.cont2:                                     ; preds = %invoke.cont1
  invoke void @_ZN10params_ref7set_symEPKcRK6symbol(ptr noundef nonnull align 8 dereferenceable(8) %solver_p, ptr noundef @.str.35, ptr noundef nonnull align 8 dereferenceable(8) %ref.tmp)
          to label %invoke.cont3 unwind label %lpad

invoke.cont3:                                     ; preds = %invoke.cont2
  %0 = load ptr, ptr %m.addr, align 8
  invoke void @_ZN10params_refC2Ev(ptr noundef nonnull align 8 dereferenceable(8) %ref.tmp4)
          to label %invoke.cont5 unwind label %lpad

invoke.cont5:                                     ; preds = %invoke.cont3
  %call = invoke noundef ptr @_Z18mk_simplify_tacticR11ast_managerRK10params_ref(ptr noundef nonnull align 8 dereferenceable(976) %0, ptr noundef nonnull align 8 dereferenceable(8) %ref.tmp4)
          to label %invoke.cont7 unwind label %lpad6

invoke.cont7:                                     ; preds = %invoke.cont5
  %1 = load ptr, ptr %m.addr, align 8
  invoke void @_ZN10params_refC2Ev(ptr noundef nonnull align 8 dereferenceable(8) %ref.tmp8)
          to label %invoke.cont9 unwind label %lpad6

invoke.cont9:                                     ; preds = %invoke.cont7
  %call12 = invoke noundef ptr @_Z26mk_propagate_values_tacticR11ast_managerRK10params_ref(ptr noundef nonnull align 8 dereferenceable(976) %1, ptr noundef nonnull align 8 dereferenceable(8) %ref.tmp8)
          to label %invoke.cont11 unwind label %lpad10

invoke.cont11:                                    ; preds = %invoke.cont9
  %2 = load ptr, ptr %m.addr, align 8
  invoke void @_ZN10params_refC2Ev(ptr noundef nonnull align 8 dereferenceable(8) %ref.tmp13)
          to label %invoke.cont14 unwind label %lpad10

invoke.cont14:                                    ; preds = %invoke.cont11
  %call17 = invoke noundef ptr @_Z19mk_solve_eqs_tacticR11ast_managerRK10params_ref(ptr noundef nonnull align 8 dereferenceable(976) %2, ptr noundef nonnull align 8 dereferenceable(8) %ref.tmp13)
          to label %invoke.cont16 unwind label %lpad15

invoke.cont16:                                    ; preds = %invoke.cont14
  %3 = load ptr, ptr %m.addr, align 8
  invoke void @_ZN10params_refC2Ev(ptr noundef nonnull align 8 dereferenceable(8) %ref.tmp18)
          to label %invoke.cont19 unwind label %lpad15

invoke.cont19:                                    ; preds = %invoke.cont16
  %call22 = invoke noundef ptr @_Z24mk_max_bv_sharing_tacticR11ast_managerRK10params_ref(ptr noundef nonnull align 8 dereferenceable(976) %3, ptr noundef nonnull align 8 dereferenceable(8) %ref.tmp18)
          to label %invoke.cont21 unwind label %lpad20

invoke.cont21:                                    ; preds = %invoke.cont19
  %4 = load ptr, ptr %m.addr, align 8
  invoke void @_ZN10params_refC2Ev(ptr noundef nonnull align 8 dereferenceable(8) %ref.tmp23)
          to label %invoke.cont24 unwind label %lpad20

invoke.cont24:                                    ; preds = %invoke.cont21
  %call27 = invoke noundef ptr @_Z21mk_bit_blaster_tacticR11ast_managerRK10params_ref(ptr noundef nonnull align 8 dereferenceable(976) %4, ptr noundef nonnull align 8 dereferenceable(8) %ref.tmp23)
          to label %invoke.cont26 unwind label %lpad25

invoke.cont26:                                    ; preds = %invoke.cont24
  invoke void @_ZN10params_refC2Ev(ptr noundef nonnull align 8 dereferenceable(8) %ref.tmp28)
          to label %invoke.cont29 unwind label %lpad25

invoke.cont29:                                    ; preds = %invoke.cont26
  %call32 = invoke noundef ptr @_Z13mk_aig_tacticRK10params_ref(ptr noundef nonnull align 8 dereferenceable(8) %ref.tmp28)
          to label %invoke.cont31 unwind label %lpad30

invoke.cont31:                                    ; preds = %invoke.cont29
  %5 = load ptr, ptr %m.addr, align 8
  %call34 = invoke noundef ptr @_Z13mk_sat_tacticR11ast_managerRK10params_ref(ptr noundef nonnull align 8 dereferenceable(976) %5, ptr noundef nonnull align 8 dereferenceable(8) %solver_p)
          to label %invoke.cont33 unwind label %lpad30

invoke.cont33:                                    ; preds = %invoke.cont31
  %call36 = invoke noundef ptr @_Z8and_thenP6tacticS0_S0_S0_S0_S0_S0_(ptr noundef %call, ptr noundef %call12, ptr noundef %call17, ptr noundef %call22, ptr noundef %call27, ptr noundef %call32, ptr noundef %call34)
          to label %invoke.cont35 unwind label %lpad30

invoke.cont35:                                    ; preds = %invoke.cont33
  %call38 = invoke noundef ptr @_Z12using_paramsP6tacticRK10params_ref(ptr noundef %call36, ptr noundef nonnull align 8 dereferenceable(8) %solver_p)
          to label %invoke.cont37 unwind label %lpad30

invoke.cont37:                                    ; preds = %invoke.cont35
  call void @_ZN10params_refD1Ev(ptr noundef nonnull align 8 dereferenceable(8) %ref.tmp28) #3
  call void @_ZN10params_refD1Ev(ptr noundef nonnull align 8 dereferenceable(8) %ref.tmp23) #3
  call void @_ZN10params_refD1Ev(ptr noundef nonnull align 8 dereferenceable(8) %ref.tmp18) #3
  call void @_ZN10params_refD1Ev(ptr noundef nonnull align 8 dereferenceable(8) %ref.tmp13) #3
  call void @_ZN10params_refD1Ev(ptr noundef nonnull align 8 dereferenceable(8) %ref.tmp8) #3
  call void @_ZN10params_refD1Ev(ptr noundef nonnull align 8 dereferenceable(8) %ref.tmp4) #3
  call void @_ZN10params_refD1Ev(ptr noundef nonnull align 8 dereferenceable(8) %solver_p) #3
  ret ptr %call38

lpad:                                             ; preds = %invoke.cont3, %invoke.cont2, %invoke.cont1, %invoke.cont, %entry
  %6 = landingpad { ptr, i32 }
          cleanup
  %7 = extractvalue { ptr, i32 } %6, 0
  store ptr %7, ptr %exn.slot, align 8
  %8 = extractvalue { ptr, i32 } %6, 1
  store i32 %8, ptr %ehselector.slot, align 4
  br label %ehcleanup43

lpad6:                                            ; preds = %invoke.cont7, %invoke.cont5
  %9 = landingpad { ptr, i32 }
          cleanup
  %10 = extractvalue { ptr, i32 } %9, 0
  store ptr %10, ptr %exn.slot, align 8
  %11 = extractvalue { ptr, i32 } %9, 1
  store i32 %11, ptr %ehselector.slot, align 4
  br label %ehcleanup42

lpad10:                                           ; preds = %invoke.cont11, %invoke.cont9
  %12 = landingpad { ptr, i32 }
          cleanup
  %13 = extractvalue { ptr, i32 } %12, 0
  store ptr %13, ptr %exn.slot, align 8
  %14 = extractvalue { ptr, i32 } %12, 1
  store i32 %14, ptr %ehselector.slot, align 4
  br label %ehcleanup41

lpad15:                                           ; preds = %invoke.cont16, %invoke.cont14
  %15 = landingpad { ptr, i32 }
          cleanup
  %16 = extractvalue { ptr, i32 } %15, 0
  store ptr %16, ptr %exn.slot, align 8
  %17 = extractvalue { ptr, i32 } %15, 1
  store i32 %17, ptr %ehselector.slot, align 4
  br label %ehcleanup40

lpad20:                                           ; preds = %invoke.cont21, %invoke.cont19
  %18 = landingpad { ptr, i32 }
          cleanup
  %19 = extractvalue { ptr, i32 } %18, 0
  store ptr %19, ptr %exn.slot, align 8
  %20 = extractvalue { ptr, i32 } %18, 1
  store i32 %20, ptr %ehselector.slot, align 4
  br label %ehcleanup39

lpad25:                                           ; preds = %invoke.cont26, %invoke.cont24
  %21 = landingpad { ptr, i32 }
          cleanup
  %22 = extractvalue { ptr, i32 } %21, 0
  store ptr %22, ptr %exn.slot, align 8
  %23 = extractvalue { ptr, i32 } %21, 1
  store i32 %23, ptr %ehselector.slot, align 4
  br label %ehcleanup

lpad30:                                           ; preds = %invoke.cont35, %invoke.cont33, %invoke.cont31, %invoke.cont29
  %24 = landingpad { ptr, i32 }
          cleanup
  %25 = extractvalue { ptr, i32 } %24, 0
  store ptr %25, ptr %exn.slot, align 8
  %26 = extractvalue { ptr, i32 } %24, 1
  store i32 %26, ptr %ehselector.slot, align 4
  call void @_ZN10params_refD1Ev(ptr noundef nonnull align 8 dereferenceable(8) %ref.tmp28) #3
  br label %ehcleanup

ehcleanup:                                        ; preds = %lpad30, %lpad25
  call void @_ZN10params_refD1Ev(ptr noundef nonnull align 8 dereferenceable(8) %ref.tmp23) #3
  br label %ehcleanup39

ehcleanup39:                                      ; preds = %ehcleanup, %lpad20
  call void @_ZN10params_refD1Ev(ptr noundef nonnull align 8 dereferenceable(8) %ref.tmp18) #3
  br label %ehcleanup40

ehcleanup40:                                      ; preds = %ehcleanup39, %lpad15
  call void @_ZN10params_refD1Ev(ptr noundef nonnull align 8 dereferenceable(8) %ref.tmp13) #3
  br label %ehcleanup41

ehcleanup41:                                      ; preds = %ehcleanup40, %lpad10
  call void @_ZN10params_refD1Ev(ptr noundef nonnull align 8 dereferenceable(8) %ref.tmp8) #3
  br label %ehcleanup42

ehcleanup42:                                      ; preds = %ehcleanup41, %lpad6
  call void @_ZN10params_refD1Ev(ptr noundef nonnull align 8 dereferenceable(8) %ref.tmp4) #3
  br label %ehcleanup43

ehcleanup43:                                      ; preds = %ehcleanup42, %lpad
  call void @_ZN10params_refD1Ev(ptr noundef nonnull align 8 dereferenceable(8) %solver_p) #3
  br label %eh.resume

eh.resume:                                        ; preds = %ehcleanup43
  %exn = load ptr, ptr %exn.slot, align 8
  %sel = load i32, ptr %ehselector.slot, align 4
  %lpad.val = insertvalue { ptr, i32 } poison, ptr %exn, 0
  %lpad.val44 = insertvalue { ptr, i32 } %lpad.val, i32 %sel, 1
  resume { ptr, i32 } %lpad.val44
}