; Function Attrs: mustprogress uwtable
define internal fastcc noundef ptr @_ZL16mk_bv2sat_tacticR11ast_manager(ptr noundef nonnull align 8 dereferenceable(976) %m) unnamed_addr #3 personality ptr @__gxx_personality_v0 {
entry:
  %solver_p = alloca %class.params_ref, align 8
  %ref.tmp = alloca %class.symbol, align 8
  %ref.tmp4 = alloca %class.params_ref, align 8
  %ref.tmp8 = alloca %class.params_ref, align 8
  %ref.tmp13 = alloca %class.params_ref, align 8
  %ref.tmp18 = alloca %class.params_ref, align 8
  %ref.tmp23 = alloca %class.params_ref, align 8
  %ref.tmp28 = alloca %class.params_ref, align 8
  store ptr null, ptr %solver_p, align 8
  invoke void @_ZN10params_ref8set_boolEPKcb(ptr noundef nonnull align 8 dereferenceable(8) %solver_p, ptr noundef nonnull @.str.34, i1 noundef zeroext false)
          to label %invoke.cont unwind label %lpad

invoke.cont:                                      ; preds = %entry
  invoke void @_ZN10params_ref8set_boolEPKcb(ptr noundef nonnull align 8 dereferenceable(8) %solver_p, ptr noundef nonnull @.str.8, i1 noundef zeroext false)
          to label %invoke.cont1 unwind label %lpad

invoke.cont1:                                     ; preds = %invoke.cont
  invoke void @_ZN6symbolC1EPKc(ptr noundef nonnull align 8 dereferenceable(8) %ref.tmp, ptr noundef nonnull @.str.36)
          to label %invoke.cont2 unwind label %lpad

invoke.cont2:                                     ; preds = %invoke.cont1
  invoke void @_ZN10params_ref7set_symEPKcRK6symbol(ptr noundef nonnull align 8 dereferenceable(8) %solver_p, ptr noundef nonnull @.str.35, ptr noundef nonnull align 8 dereferenceable(8) %ref.tmp)
          to label %invoke.cont3 unwind label %lpad

invoke.cont3:                                     ; preds = %invoke.cont2
  store ptr null, ptr %ref.tmp4, align 8
  %call = invoke noundef ptr @_Z18mk_simplify_tacticR11ast_managerRK10params_ref(ptr noundef nonnull align 8 dereferenceable(976) %m, ptr noundef nonnull align 8 dereferenceable(8) %ref.tmp4)
          to label %invoke.cont7 unwind label %lpad6

invoke.cont7:                                     ; preds = %invoke.cont3
  store ptr null, ptr %ref.tmp8, align 8
  %call12 = invoke noundef ptr @_Z26mk_propagate_values_tacticR11ast_managerRK10params_ref(ptr noundef nonnull align 8 dereferenceable(976) %m, ptr noundef nonnull align 8 dereferenceable(8) %ref.tmp8)
          to label %invoke.cont11 unwind label %lpad10

invoke.cont11:                                    ; preds = %invoke.cont7
  store ptr null, ptr %ref.tmp13, align 8
  %call.i12 = invoke noalias noundef ptr @_ZN6memory8allocateEm(i64 noundef 352)
          to label %call.i.noexc unwind label %lpad15

call.i.noexc:                                     ; preds = %invoke.cont11
  invoke void @_ZN27dependent_expr_state_tacticC2ER11ast_managerRK10params_refPFP25dependent_expr_simplifierS1_S4_R20dependent_expr_stateE(ptr noundef nonnull align 8 dereferenceable(345) %call.i12, ptr noundef nonnull align 8 dereferenceable(976) %m, ptr noundef nonnull align 8 dereferenceable(8) %ref.tmp13, ptr noundef nonnull @_ZZ19mk_solve_eqs_tacticR11ast_managerRK10params_refENUlRT_RT0_RT1_E_8__invokeIS_S2_20dependent_expr_stateEEP25dependent_expr_simplifierS5_S7_S9_)
          to label %invoke.cont16 unwind label %lpad15

invoke.cont16:                                    ; preds = %call.i.noexc
  store ptr null, ptr %ref.tmp18, align 8
  %call.i14 = invoke noalias noundef ptr @_ZN6memory8allocateEm(i64 noundef 352)
          to label %call.i.noexc13 unwind label %lpad20

call.i.noexc13:                                   ; preds = %invoke.cont16
  invoke void @_ZN27dependent_expr_state_tacticC2ER11ast_managerRK10params_refPFP25dependent_expr_simplifierS1_S4_R20dependent_expr_stateE(ptr noundef nonnull align 8 dereferenceable(345) %call.i14, ptr noundef nonnull align 8 dereferenceable(976) %m, ptr noundef nonnull align 8 dereferenceable(8) %ref.tmp18, ptr noundef nonnull @_Z17mk_max_bv_sharingR11ast_managerRK10params_refR20dependent_expr_state)
          to label %invoke.cont21 unwind label %lpad20

invoke.cont21:                                    ; preds = %call.i.noexc13
  store ptr null, ptr %ref.tmp23, align 8
  %call27 = invoke noundef ptr @_Z21mk_bit_blaster_tacticR11ast_managerRK10params_ref(ptr noundef nonnull align 8 dereferenceable(976) %m, ptr noundef nonnull align 8 dereferenceable(8) %ref.tmp23)
          to label %invoke.cont26 unwind label %lpad25

invoke.cont26:                                    ; preds = %invoke.cont21
  store ptr null, ptr %ref.tmp28, align 8
  %call32 = invoke noundef ptr @_Z13mk_aig_tacticRK10params_ref(ptr noundef nonnull align 8 dereferenceable(8) %ref.tmp28)
          to label %invoke.cont31 unwind label %lpad30

invoke.cont31:                                    ; preds = %invoke.cont26
  %call34 = invoke noundef ptr @_Z13mk_sat_tacticR11ast_managerRK10params_ref(ptr noundef nonnull align 8 dereferenceable(976) %m, ptr noundef nonnull align 8 dereferenceable(8) %solver_p)
          to label %invoke.cont33 unwind label %lpad30

invoke.cont33:                                    ; preds = %invoke.cont31
  %call36 = invoke noundef ptr @_Z8and_thenP6tacticS0_S0_S0_S0_S0_S0_(ptr noundef %call, ptr noundef %call12, ptr noundef nonnull %call.i12, ptr noundef nonnull %call.i14, ptr noundef %call27, ptr noundef %call32, ptr noundef %call34)
          to label %invoke.cont35 unwind label %lpad30

invoke.cont35:                                    ; preds = %invoke.cont33
  %call38 = invoke noundef ptr @_Z12using_paramsP6tacticRK10params_ref(ptr noundef %call36, ptr noundef nonnull align 8 dereferenceable(8) %solver_p)
          to label %invoke.cont37 unwind label %lpad30

invoke.cont37:                                    ; preds = %invoke.cont35
  call void @_ZN10params_refD1Ev(ptr noundef nonnull align 8 dereferenceable(8) %ref.tmp28) #16
  call void @_ZN10params_refD1Ev(ptr noundef nonnull align 8 dereferenceable(8) %ref.tmp23) #16
  call void @_ZN10params_refD1Ev(ptr noundef nonnull align 8 dereferenceable(8) %ref.tmp18) #16
  call void @_ZN10params_refD1Ev(ptr noundef nonnull align 8 dereferenceable(8) %ref.tmp13) #16
  call void @_ZN10params_refD1Ev(ptr noundef nonnull align 8 dereferenceable(8) %ref.tmp8) #16
  call void @_ZN10params_refD1Ev(ptr noundef nonnull align 8 dereferenceable(8) %ref.tmp4) #16
  call void @_ZN10params_refD1Ev(ptr noundef nonnull align 8 dereferenceable(8) %solver_p) #16
  ret ptr %call38

lpad:                                             ; preds = %invoke.cont2, %invoke.cont1, %invoke.cont, %entry
  %0 = landingpad { ptr, i32 }
          cleanup
  br label %ehcleanup43

lpad6:                                            ; preds = %invoke.cont3
  %1 = landingpad { ptr, i32 }
          cleanup
  br label %ehcleanup42

lpad10:                                           ; preds = %invoke.cont7
  %2 = landingpad { ptr, i32 }
          cleanup
  br label %ehcleanup41

lpad15:                                           ; preds = %call.i.noexc, %invoke.cont11
  %3 = landingpad { ptr, i32 }
          cleanup
  br label %ehcleanup40

lpad20:                                           ; preds = %call.i.noexc13, %invoke.cont16
  %4 = landingpad { ptr, i32 }
          cleanup
  br label %ehcleanup39

lpad25:                                           ; preds = %invoke.cont21
  %5 = landingpad { ptr, i32 }
          cleanup
  br label %ehcleanup

lpad30:                                           ; preds = %invoke.cont35, %invoke.cont33, %invoke.cont31, %invoke.cont26
  %6 = landingpad { ptr, i32 }
          cleanup
  call void @_ZN10params_refD1Ev(ptr noundef nonnull align 8 dereferenceable(8) %ref.tmp28) #16
  br label %ehcleanup

ehcleanup:                                        ; preds = %lpad30, %lpad25
  %.pn = phi { ptr, i32 } [ %6, %lpad30 ], [ %5, %lpad25 ]
  call void @_ZN10params_refD1Ev(ptr noundef nonnull align 8 dereferenceable(8) %ref.tmp23) #16
  br label %ehcleanup39

ehcleanup39:                                      ; preds = %ehcleanup, %lpad20
  %.pn.pn = phi { ptr, i32 } [ %.pn, %ehcleanup ], [ %4, %lpad20 ]
  call void @_ZN10params_refD1Ev(ptr noundef nonnull align 8 dereferenceable(8) %ref.tmp18) #16
  br label %ehcleanup40

ehcleanup40:                                      ; preds = %ehcleanup39, %lpad15
  %.pn.pn.pn = phi { ptr, i32 } [ %.pn.pn, %ehcleanup39 ], [ %3, %lpad15 ]
  call void @_ZN10params_refD1Ev(ptr noundef nonnull align 8 dereferenceable(8) %ref.tmp13) #16
  br label %ehcleanup41

ehcleanup41:                                      ; preds = %ehcleanup40, %lpad10
  %.pn.pn.pn.pn = phi { ptr, i32 } [ %.pn.pn.pn, %ehcleanup40 ], [ %2, %lpad10 ]
  call void @_ZN10params_refD1Ev(ptr noundef nonnull align 8 dereferenceable(8) %ref.tmp8) #16
  br label %ehcleanup42

ehcleanup42:                                      ; preds = %ehcleanup41, %lpad6
  %.pn.pn.pn.pn.pn = phi { ptr, i32 } [ %.pn.pn.pn.pn, %ehcleanup41 ], [ %1, %lpad6 ]
  call void @_ZN10params_refD1Ev(ptr noundef nonnull align 8 dereferenceable(8) %ref.tmp4) #16
  br label %ehcleanup43

ehcleanup43:                                      ; preds = %ehcleanup42, %lpad
  %.pn.pn.pn.pn.pn.pn = phi { ptr, i32 } [ %.pn.pn.pn.pn.pn, %ehcleanup42 ], [ %0, %lpad ]
  call void @_ZN10params_refD1Ev(ptr noundef nonnull align 8 dereferenceable(8) %solver_p) #16
  resume { ptr, i32 } %.pn.pn.pn.pn.pn.pn
}